target datalayout = "e-m:e-p270:32:32-p271:32:32-p272:64:64-i64:64-i128:128-f80:128-n8:16:32:64-S128"
target triple = "x86_64-pc-linux-gnu"

%struct.PBE2PARAM_st = type { ptr, ptr }
%struct.X509_algor_st = type { ptr, ptr }

@PBE2PARAM_it.local_it = internal constant { i8, [7 x i8], i64, ptr, i64, ptr, i64, ptr } { i8 1, [7 x i8] zeroinitializer, i64 16, ptr @PBE2PARAM_seq_tt, i64 2, ptr null, i64 16, ptr @.str }, align 8
@.str.3 = private unnamed_addr constant [34 x i8] c"../openssl/crypto/asn1/p5_pbev2.c\00", align 1
@__func__.PKCS5_pbe2_set_iv_ex = private unnamed_addr constant [21 x i8] c"PKCS5_pbe2_set_iv_ex\00", align 1

; Function Attrs: nounwind uwtable
define void @PBE2PARAM_free(ptr noundef %0) #0 {
  %2 = alloca ptr, align 8
  store ptr %0, ptr %2, align 8, !tbaa !12
  %3 = load ptr, ptr %2, align 8, !tbaa !12
  %4 = call ptr @PBE2PARAM_it()
  call void @ASN1_item_free(ptr noundef %3, ptr noundef %4)
  ret void
}

; Function Attrs: nounwind uwtable
define ptr @PBE2PARAM_it() #0 {
  ret ptr @PBE2PARAM_it.local_it
}

; Function Attrs: nounwind uwtable
define ptr @PBE2PARAM_new() #0 {
  %1 = call ptr @PBE2PARAM_it()
  %2 = call ptr @ASN1_item_new(ptr noundef %1)
  ret ptr %2
}

; Function Attrs: nounwind uwtable
define ptr @PKCS5_pbe2_set_iv_ex(ptr noundef %0, i32 noundef %1, ptr noundef %2, i32 noundef %3, ptr noundef %4, i32 noundef %5, ptr noundef %6) #0 {
  %8 = alloca ptr, align 8
  %9 = alloca ptr, align 8
  %10 = alloca i32, align 4
  %11 = alloca ptr, align 8
  %12 = alloca i32, align 4
  %13 = alloca ptr, align 8
  %14 = alloca i32, align 4
  %15 = alloca ptr, align 8
  %16 = alloca ptr, align 8
  %17 = alloca ptr, align 8
  %18 = alloca i32, align 4
  %19 = alloca i32, align 4
  %20 = alloca i32, align 4
  %21 = alloca ptr, align 8
  %22 = alloca [16 x i8], align 16
  %23 = alloca ptr, align 8
  %24 = alloca i32, align 4
  store ptr %0, ptr %9, align 8, !tbaa !19
  store i32 %1, ptr %10, align 4, !tbaa !21
  store ptr %2, ptr %11, align 8, !tbaa !23
  store i32 %3, ptr %12, align 4, !tbaa !21
  store ptr %4, ptr %13, align 8, !tbaa !23
  store i32 %5, ptr %14, align 4, !tbaa !21
  store ptr %6, ptr %15, align 8, !tbaa !25
  call void @llvm.lifetime.start.p0(i64 8, ptr %16) #4
  store ptr null, ptr %16, align 8, !tbaa !27
  call void @llvm.lifetime.start.p0(i64 8, ptr %17) #4
  store ptr null, ptr %17, align 8, !tbaa !27
  call void @llvm.lifetime.start.p0(i64 4, ptr %18) #4
  call void @llvm.lifetime.start.p0(i64 4, ptr %19) #4
  call void @llvm.lifetime.start.p0(i64 4, ptr %20) #4
  call void @llvm.lifetime.start.p0(i64 8, ptr %21) #4
  store ptr null, ptr %21, align 8, !tbaa !29
  call void @llvm.lifetime.start.p0(i64 16, ptr %22) #4
  call void @llvm.lifetime.start.p0(i64 8, ptr %23) #4
  store ptr null, ptr %23, align 8, !tbaa !12
  %25 = load ptr, ptr %9, align 8, !tbaa !19
  %26 = call i32 @EVP_CIPHER_get_type(ptr noundef %25)
  store i32 %26, ptr %18, align 4, !tbaa !21
  %27 = load i32, ptr %18, align 4, !tbaa !21
  %28 = icmp eq i32 %27, 0
  br i1 %28, label %29, label %30

29:                                               ; preds = %7
  call void @ERR_new()
  call void @ERR_set_debug(ptr noundef @.str.3, i32 noundef 64, ptr noundef @__func__.PKCS5_pbe2_set_iv_ex)
  call void (i32, i32, ptr, ...) @ERR_set_error(i32 noundef 13, i32 noundef 108, ptr noundef null)
  br label %144

30:                                               ; preds = %7
  %31 = call ptr @PBE2PARAM_new()
  store ptr %31, ptr %23, align 8, !tbaa !12
  %32 = icmp eq ptr %31, null
  br i1 %32, label %33, label %34

33:                                               ; preds = %30
  call void @ERR_new()
  call void @ERR_set_debug(ptr noundef @.str.3, i32 noundef 69, ptr noundef @__func__.PKCS5_pbe2_set_iv_ex)
  call void (i32, i32, ptr, ...) @ERR_set_error(i32 noundef 13, i32 noundef 524301, ptr noundef null)
  br label %144

34:                                               ; preds = %30
  %35 = load ptr, ptr %23, align 8, !tbaa !12
  %36 = getelementptr inbounds nuw %struct.PBE2PARAM_st, ptr %35, i32 0, i32 1
  %37 = load ptr, ptr %36, align 8, !tbaa !31
  store ptr %37, ptr %16, align 8, !tbaa !27
  %38 = load i32, ptr %18, align 4, !tbaa !21
  %39 = call ptr @OBJ_nid2obj(i32 noundef %38)
  %40 = load ptr, ptr %16, align 8, !tbaa !27
  %41 = getelementptr inbounds nuw %struct.X509_algor_st, ptr %40, i32 0, i32 0
  store ptr %39, ptr %41, align 8, !tbaa !33
  %42 = call ptr @ASN1_TYPE_new()
  %43 = load ptr, ptr %16, align 8, !tbaa !27
  %44 = getelementptr inbounds nuw %struct.X509_algor_st, ptr %43, i32 0, i32 1
  store ptr %42, ptr %44, align 8, !tbaa !37
  %45 = icmp eq ptr %42, null
  br i1 %45, label %46, label %47

46:                                               ; preds = %34
  call void @ERR_new()
  call void @ERR_set_debug(ptr noundef @.str.3, i32 noundef 77, ptr noundef @__func__.PKCS5_pbe2_set_iv_ex)
  call void (i32, i32, ptr, ...) @ERR_set_error(i32 noundef 13, i32 noundef 524301, ptr noundef null)
  br label %144

47:                                               ; preds = %34
  %48 = load ptr, ptr %9, align 8, !tbaa !19
  %49 = call i32 @EVP_CIPHER_get_iv_length(ptr noundef %48)
  store i32 %49, ptr %20, align 4, !tbaa !21
  %50 = load i32, ptr %20, align 4, !tbaa !21
  %51 = icmp sgt i32 %50, 0
  br i1 %51, label %52, label %70

52:                                               ; preds = %47
  %53 = load ptr, ptr %13, align 8, !tbaa !23
  %54 = icmp ne ptr %53, null
  br i1 %54, label %55, label %60

55:                                               ; preds = %52
  %56 = getelementptr inbounds [16 x i8], ptr %22, i64 0, i64 0
  %57 = load ptr, ptr %13, align 8, !tbaa !23
  %58 = load i32, ptr %20, align 4, !tbaa !21
  %59 = sext i32 %58 to i64
  call void @llvm.memcpy.p0.p0.i64(ptr align 16 %56, ptr align 1 %57, i64 %59, i1 false)
  br label %69

60:                                               ; preds = %52
  %61 = load ptr, ptr %15, align 8, !tbaa !25
  %62 = getelementptr inbounds [16 x i8], ptr %22, i64 0, i64 0
  %63 = load i32, ptr %20, align 4, !tbaa !21
  %64 = sext i32 %63 to i64
  %65 = call i32 @RAND_bytes_ex(ptr noundef %61, ptr noundef %62, i64 noundef %64, i32 noundef 0)
  %66 = icmp sle i32 %65, 0
  br i1 %66, label %67, label %68

67:                                               ; preds = %60
  br label %144

68:                                               ; preds = %60
  br label %69

69:                                               ; preds = %68, %55
  br label %70

70:                                               ; preds = %69, %47
  %71 = call ptr @EVP_CIPHER_CTX_new()
  store ptr %71, ptr %21, align 8, !tbaa !29
  %72 = load ptr, ptr %21, align 8, !tbaa !29
  %73 = icmp eq ptr %72, null
  br i1 %73, label %74, label %75

74:                                               ; preds = %70
  call void @ERR_new()
  call void @ERR_set_debug(ptr noundef @.str.3, i32 noundef 92, ptr noundef @__func__.PKCS5_pbe2_set_iv_ex)
  call void (i32, i32, ptr, ...) @ERR_set_error(i32 noundef 13, i32 noundef 524294, ptr noundef null)
  br label %144

75:                                               ; preds = %70
  %76 = load ptr, ptr %21, align 8, !tbaa !29
  %77 = load ptr, ptr %9, align 8, !tbaa !19
  %78 = getelementptr inbounds [16 x i8], ptr %22, i64 0, i64 0
  %79 = call i32 @EVP_CipherInit_ex(ptr noundef %76, ptr noundef %77, ptr noundef null, ptr noundef null, ptr noundef %78, i32 noundef 0)
  %80 = icmp ne i32 %79, 0
  br i1 %80, label %82, label %81

81:                                               ; preds = %75
  br label %144

82:                                               ; preds = %75
  %83 = load ptr, ptr %21, align 8, !tbaa !29
  %84 = load ptr, ptr %16, align 8, !tbaa !27
  %85 = getelementptr inbounds nuw %struct.X509_algor_st, ptr %84, i32 0, i32 1
  %86 = load ptr, ptr %85, align 8, !tbaa !37
  %87 = call i32 @EVP_CIPHER_param_to_asn1(ptr noundef %83, ptr noundef %86)
  %88 = icmp sle i32 %87, 0
  br i1 %88, label %89, label %90

89:                                               ; preds = %82
  call void @ERR_new()
  call void @ERR_set_debug(ptr noundef @.str.3, i32 noundef 100, ptr noundef @__func__.PKCS5_pbe2_set_iv_ex)
  call void (i32, i32, ptr, ...) @ERR_set_error(i32 noundef 13, i32 noundef 114, ptr noundef null)
  br label %144

90:                                               ; preds = %82
  %91 = call i32 @ERR_set_mark()
  %92 = load i32, ptr %14, align 4, !tbaa !21
  %93 = icmp eq i32 %92, -1
  br i1 %93, label %94, label %99

94:                                               ; preds = %90
  %95 = load ptr, ptr %21, align 8, !tbaa !29
  %96 = call i32 @EVP_CIPHER_CTX_ctrl(ptr noundef %95, i32 noundef 7, i32 noundef 0, ptr noundef %14)
  %97 = icmp sle i32 %96, 0
  br i1 %97, label %98, label %99

98:                                               ; preds = %94
  store i32 799, ptr %14, align 4, !tbaa !21
  br label %99

99:                                               ; preds = %98, %94, %90
  %100 = call i32 @ERR_pop_to_mark()
  %101 = load ptr, ptr %21, align 8, !tbaa !29
  call void @EVP_CIPHER_CTX_free(ptr noundef %101)
  store ptr null, ptr %21, align 8, !tbaa !29
  %102 = load i32, ptr %18, align 4, !tbaa !21
  %103 = icmp eq i32 %102, 37
  br i1 %103, label %104, label %107

104:                                              ; preds = %99
  %105 = load ptr, ptr %9, align 8, !tbaa !19
  %106 = call i32 @EVP_CIPHER_get_key_length(ptr noundef %105)
  store i32 %106, ptr %19, align 4, !tbaa !21
  br label %108

107:                                              ; preds = %99
  store i32 -1, ptr %19, align 4, !tbaa !21
  br label %108

108:                                              ; preds = %107, %104
  %109 = load ptr, ptr %23, align 8, !tbaa !12
  %110 = getelementptr inbounds nuw %struct.PBE2PARAM_st, ptr %109, i32 0, i32 0
  %111 = load ptr, ptr %110, align 8, !tbaa !38
  call void @X509_ALGOR_free(ptr noundef %111)
  %112 = load i32, ptr %10, align 4, !tbaa !21
  %113 = load ptr, ptr %11, align 8, !tbaa !23
  %114 = load i32, ptr %12, align 4, !tbaa !21
  %115 = load i32, ptr %14, align 4, !tbaa !21
  %116 = load i32, ptr %19, align 4, !tbaa !21
  %117 = load ptr, ptr %15, align 8, !tbaa !25
  %118 = call ptr @PKCS5_pbkdf2_set_ex(i32 noundef %112, ptr noundef %113, i32 noundef %114, i32 noundef %115, i32 noundef %116, ptr noundef %117)
  %119 = load ptr, ptr %23, align 8, !tbaa !12
  %120 = getelementptr inbounds nuw %struct.PBE2PARAM_st, ptr %119, i32 0, i32 0
  store ptr %118, ptr %120, align 8, !tbaa !38
  %121 = load ptr, ptr %23, align 8, !tbaa !12
  %122 = getelementptr inbounds nuw %struct.PBE2PARAM_st, ptr %121, i32 0, i32 0
  %123 = load ptr, ptr %122, align 8, !tbaa !38
  %124 = icmp eq ptr %123, null
  br i1 %124, label %125, label %126

125:                                              ; preds = %108
  call void @ERR_new()
  call void @ERR_set_debug(ptr noundef @.str.3, i32 noundef 131, ptr noundef @__func__.PKCS5_pbe2_set_iv_ex)
  call void (i32, i32, ptr, ...) @ERR_set_error(i32 noundef 13, i32 noundef 524301, ptr noundef null)
  br label %144

126:                                              ; preds = %108
  %127 = call ptr @X509_ALGOR_new()
  store ptr %127, ptr %17, align 8, !tbaa !27
  %128 = icmp eq ptr %127, null
  br i1 %128, label %129, label %130

129:                                              ; preds = %126
  call void @ERR_new()
  call void @ERR_set_debug(ptr noundef @.str.3, i32 noundef 138, ptr noundef @__func__.PKCS5_pbe2_set_iv_ex)
  call void (i32, i32, ptr, ...) @ERR_set_error(i32 noundef 13, i32 noundef 524299, ptr noundef null)
  br label %144

130:                                              ; preds = %126
  %131 = call ptr @OBJ_nid2obj(i32 noundef 161)
  %132 = load ptr, ptr %17, align 8, !tbaa !27
  %133 = getelementptr inbounds nuw %struct.X509_algor_st, ptr %132, i32 0, i32 0
  store ptr %131, ptr %133, align 8, !tbaa !33
  %134 = call ptr @PBE2PARAM_it()
  %135 = load ptr, ptr %23, align 8, !tbaa !12
  %136 = load ptr, ptr %17, align 8, !tbaa !27
  %137 = getelementptr inbounds nuw %struct.X509_algor_st, ptr %136, i32 0, i32 1
  %138 = call ptr @ASN1_TYPE_pack_sequence(ptr noundef %134, ptr noundef %135, ptr noundef %137)
  %139 = icmp ne ptr %138, null
  br i1 %139, label %141, label %140

140:                                              ; preds = %130
  call void @ERR_new()
  call void @ERR_set_debug(ptr noundef @.str.3, i32 noundef 148, ptr noundef @__func__.PKCS5_pbe2_set_iv_ex)
  call void (i32, i32, ptr, ...) @ERR_set_error(i32 noundef 13, i32 noundef 524301, ptr noundef null)
  br label %144

141:                                              ; preds = %130
  %142 = load ptr, ptr %23, align 8, !tbaa !12
  call void @PBE2PARAM_free(ptr noundef %142)
  store ptr null, ptr %23, align 8, !tbaa !12
  %143 = load ptr, ptr %17, align 8, !tbaa !27
  store ptr %143, ptr %8, align 8
  store i32 1, ptr %24, align 4
  br label %148

144:                                              ; preds = %140, %129, %125, %89, %81, %74, %67, %46, %33, %29
  %145 = load ptr, ptr %21, align 8, !tbaa !29
  call void @EVP_CIPHER_CTX_free(ptr noundef %145)
  %146 = load ptr, ptr %23, align 8, !tbaa !12
  call void @PBE2PARAM_free(ptr noundef %146)
  %147 = load ptr, ptr %17, align 8, !tbaa !27
  call void @X509_ALGOR_free(ptr noundef %147)
  store ptr null, ptr %8, align 8
  store i32 1, ptr %24, align 4
  br label %148

148:                                              ; preds = %144, %141
  call void @llvm.lifetime.end.p0(i64 8, ptr %23) #4
  call void @llvm.lifetime.end.p0(i64 16, ptr %22) #4
  call void @llvm.lifetime.end.p0(i64 8, ptr %21) #4
  call void @llvm.lifetime.end.p0(i64 4, ptr %20) #4
  call void @llvm.lifetime.end.p0(i64 4, ptr %19) #4
  call void @llvm.lifetime.end.p0(i64 4, ptr %18) #4
  call void @llvm.lifetime.end.p0(i64 8, ptr %17) #4
  call void @llvm.lifetime.end.p0(i64 8, ptr %16) #4
  %149 = load ptr, ptr %8, align 8
  ret ptr %149
}