; Function Attrs: nounwind uwtable
define ptr @PKCS5_pbe2_set_iv_ex(ptr noundef %0, i32 noundef %1, ptr noundef captures(address_is_null) %2, i32 noundef %3, ptr noundef readonly captures(address_is_null) %4, i32 noundef %5, ptr noundef %6) local_unnamed_addr #1 {
  %8 = alloca i32, align 4
  %9 = alloca [16 x i8], align 16
  store i32 %5, ptr %8, align 4, !tbaa !3
  call void @llvm.lifetime.start.p0(i64 16, ptr nonnull %9) #5
  %10 = tail call i32 @EVP_CIPHER_get_type(ptr noundef %0) #5
  %11 = icmp eq i32 %10, 0
  br i1 %11, label %12, label %13

12:                                               ; preds = %7
  tail call void @ERR_new() #5
  tail call void @ERR_set_debug(ptr noundef nonnull @.str.3, i32 noundef 64, ptr noundef nonnull @__func__.PKCS5_pbe2_set_iv_ex) #5
  tail call void (i32, i32, ptr, ...) @ERR_set_error(i32 noundef 13, i32 noundef 108, ptr noundef null) #5
  br label %73

13:                                               ; preds = %7
  %14 = tail call ptr @ASN1_item_new(ptr noundef nonnull @PBE2PARAM_it.local_it) #5
  %15 = icmp eq ptr %14, null
  br i1 %15, label %16, label %17

16:                                               ; preds = %13
  tail call void @ERR_new() #5
  tail call void @ERR_set_debug(ptr noundef nonnull @.str.3, i32 noundef 69, ptr noundef nonnull @__func__.PKCS5_pbe2_set_iv_ex) #5
  tail call void (i32, i32, ptr, ...) @ERR_set_error(i32 noundef 13, i32 noundef 524301, ptr noundef null) #5
  br label %73

17:                                               ; preds = %13
  %18 = getelementptr inbounds nuw i8, ptr %14, i64 8
  %19 = load ptr, ptr %18, align 8, !tbaa !7
  %20 = tail call ptr @OBJ_nid2obj(i32 noundef %10) #5
  store ptr %20, ptr %19, align 8, !tbaa !11
  %21 = tail call ptr @ASN1_TYPE_new() #5
  %22 = getelementptr inbounds nuw i8, ptr %19, i64 8
  store ptr %21, ptr %22, align 8, !tbaa !15
  %23 = icmp eq ptr %21, null
  br i1 %23, label %24, label %25

24:                                               ; preds = %17
  tail call void @ERR_new() #5
  tail call void @ERR_set_debug(ptr noundef nonnull @.str.3, i32 noundef 77, ptr noundef nonnull @__func__.PKCS5_pbe2_set_iv_ex) #5
  tail call void (i32, i32, ptr, ...) @ERR_set_error(i32 noundef 13, i32 noundef 524301, ptr noundef null) #5
  br label %73

25:                                               ; preds = %17
  %26 = tail call i32 @EVP_CIPHER_get_iv_length(ptr noundef %0) #5
  %27 = icmp sgt i32 %26, 0
  br i1 %27, label %28, label %34

28:                                               ; preds = %25
  %.not = icmp eq ptr %4, null
  %29 = zext nneg i32 %26 to i64
  br i1 %.not, label %31, label %30

30:                                               ; preds = %28
  call void @llvm.memcpy.p0.p0.i64(ptr nonnull align 16 %9, ptr nonnull align 1 %4, i64 %29, i1 false)
  br label %34

31:                                               ; preds = %28
  %32 = call i32 @RAND_bytes_ex(ptr noundef %6, ptr noundef nonnull %9, i64 noundef %29, i32 noundef 0) #5
  %33 = icmp slt i32 %32, 1
  br i1 %33, label %73, label %34

34:                                               ; preds = %30, %31, %25
  %35 = call ptr @EVP_CIPHER_CTX_new() #5
  %36 = icmp eq ptr %35, null
  br i1 %36, label %37, label %38

37:                                               ; preds = %34
  call void @ERR_new() #5
  call void @ERR_set_debug(ptr noundef nonnull @.str.3, i32 noundef 92, ptr noundef nonnull @__func__.PKCS5_pbe2_set_iv_ex) #5
  call void (i32, i32, ptr, ...) @ERR_set_error(i32 noundef 13, i32 noundef 524294, ptr noundef null) #5
  br label %73

38:                                               ; preds = %34
  %39 = call i32 @EVP_CipherInit_ex(ptr noundef nonnull %35, ptr noundef %0, ptr noundef null, ptr noundef null, ptr noundef nonnull %9, i32 noundef 0) #5
  %.not50 = icmp eq i32 %39, 0
  br i1 %.not50, label %73, label %40

40:                                               ; preds = %38
  %41 = load ptr, ptr %22, align 8, !tbaa !15
  %42 = call i32 @EVP_CIPHER_param_to_asn1(ptr noundef nonnull %35, ptr noundef %41) #5
  %43 = icmp slt i32 %42, 1
  br i1 %43, label %44, label %45

44:                                               ; preds = %40
  call void @ERR_new() #5
  call void @ERR_set_debug(ptr noundef nonnull @.str.3, i32 noundef 100, ptr noundef nonnull @__func__.PKCS5_pbe2_set_iv_ex) #5
  call void (i32, i32, ptr, ...) @ERR_set_error(i32 noundef 13, i32 noundef 114, ptr noundef null) #5
  br label %73

45:                                               ; preds = %40
  %46 = call i32 @ERR_set_mark() #5
  %47 = icmp eq i32 %5, -1
  br i1 %47, label %48, label %52

48:                                               ; preds = %45
  %49 = call i32 @EVP_CIPHER_CTX_ctrl(ptr noundef nonnull %35, i32 noundef 7, i32 noundef 0, ptr noundef nonnull %8) #5
  %50 = icmp slt i32 %49, 1
  br i1 %50, label %51, label %52

51:                                               ; preds = %48
  store i32 799, ptr %8, align 4, !tbaa !3
  br label %52

52:                                               ; preds = %51, %48, %45
  %53 = call i32 @ERR_pop_to_mark() #5
  call void @EVP_CIPHER_CTX_free(ptr noundef nonnull %35) #5
  %54 = icmp eq i32 %10, 37
  br i1 %54, label %55, label %57

55:                                               ; preds = %52
  %56 = call i32 @EVP_CIPHER_get_key_length(ptr noundef %0) #5
  br label %57

57:                                               ; preds = %52, %55
  %.040 = phi i32 [ %56, %55 ], [ -1, %52 ]
  %58 = load ptr, ptr %14, align 8, !tbaa !16
  call void @X509_ALGOR_free(ptr noundef %58) #5
  %59 = load i32, ptr %8, align 4, !tbaa !3
  %60 = call ptr @PKCS5_pbkdf2_set_ex(i32 noundef %1, ptr noundef %2, i32 noundef %3, i32 noundef %59, i32 noundef %.040, ptr noundef %6)
  store ptr %60, ptr %14, align 8, !tbaa !16
  %61 = icmp eq ptr %60, null
  br i1 %61, label %62, label %63

62:                                               ; preds = %57
  call void @ERR_new() #5
  call void @ERR_set_debug(ptr noundef nonnull @.str.3, i32 noundef 131, ptr noundef nonnull @__func__.PKCS5_pbe2_set_iv_ex) #5
  call void (i32, i32, ptr, ...) @ERR_set_error(i32 noundef 13, i32 noundef 524301, ptr noundef null) #5
  br label %73

63:                                               ; preds = %57
  %64 = call ptr @X509_ALGOR_new() #5
  %65 = icmp eq ptr %64, null
  br i1 %65, label %66, label %67

66:                                               ; preds = %63
  call void @ERR_new() #5
  call void @ERR_set_debug(ptr noundef nonnull @.str.3, i32 noundef 138, ptr noundef nonnull @__func__.PKCS5_pbe2_set_iv_ex) #5
  call void (i32, i32, ptr, ...) @ERR_set_error(i32 noundef 13, i32 noundef 524299, ptr noundef null) #5
  br label %73

67:                                               ; preds = %63
  %68 = call ptr @OBJ_nid2obj(i32 noundef 161) #5
  store ptr %68, ptr %64, align 8, !tbaa !11
  %69 = getelementptr inbounds nuw i8, ptr %64, i64 8
  %70 = call ptr @ASN1_TYPE_pack_sequence(ptr noundef nonnull @PBE2PARAM_it.local_it, ptr noundef nonnull %14, ptr noundef nonnull %69) #5
  %.not51 = icmp eq ptr %70, null
  br i1 %.not51, label %71, label %72

71:                                               ; preds = %67
  call void @ERR_new() #5
  call void @ERR_set_debug(ptr noundef nonnull @.str.3, i32 noundef 148, ptr noundef nonnull @__func__.PKCS5_pbe2_set_iv_ex) #5
  call void (i32, i32, ptr, ...) @ERR_set_error(i32 noundef 13, i32 noundef 524301, ptr noundef null) #5
  br label %73

72:                                               ; preds = %67
  call void @ASN1_item_free(ptr noundef nonnull %14, ptr noundef nonnull @PBE2PARAM_it.local_it) #5
  br label %74

73:                                               ; preds = %38, %31, %71, %66, %62, %44, %37, %24, %16, %12
  %.041 = phi ptr [ null, %12 ], [ null, %16 ], [ null, %24 ], [ null, %37 ], [ null, %44 ], [ null, %62 ], [ null, %66 ], [ %64, %71 ], [ null, %38 ], [ null, %31 ]
  %.038 = phi ptr [ null, %12 ], [ null, %16 ], [ null, %24 ], [ null, %37 ], [ %35, %44 ], [ null, %62 ], [ null, %66 ], [ null, %71 ], [ %35, %38 ], [ null, %31 ]
  %.0 = phi ptr [ null, %12 ], [ null, %16 ], [ %14, %24 ], [ %14, %37 ], [ %14, %44 ], [ %14, %62 ], [ %14, %66 ], [ %14, %71 ], [ %14, %38 ], [ %14, %31 ]
  call void @EVP_CIPHER_CTX_free(ptr noundef %.038) #5
  call void @ASN1_item_free(ptr noundef %.0, ptr noundef nonnull @PBE2PARAM_it.local_it) #5
  call void @X509_ALGOR_free(ptr noundef %.041) #5
  br label %74

74:                                               ; preds = %73, %72
  %.039 = phi ptr [ null, %73 ], [ %64, %72 ]
  call void @llvm.lifetime.end.p0(i64 16, ptr nonnull %9) #5
  ret ptr %.039
}